target datalayout = "e-m:e-p270:32:32-p271:32:32-p272:64:64-i64:64-i128:128-f80:128-n8:16:32:64-S128"
target triple = "x86_64-pc-linux-gnu"

%struct._wmem_tree_key_t = type { i32, ptr }
%struct._urb_info_t = type { i16, i16, i8, i32, i8, i32, i8, i8, i8, i32, ptr, ptr }
%struct._packet_info = type { ptr, ptr, i32, i32, %struct.nstime_t, %struct.nstime_t, %struct.nstime_t, i8, ptr, ptr, ptr, ptr, %struct._address, %struct._address, %struct._address, %struct._address, %struct._address, %struct._address, i32, ptr, i8, [3 x i8], %struct.anon, i32, i32, i32, i32, ptr, i8, ptr, ptr, i16, i16, i32, i32, i16, i32, i32, ptr, ptr, ptr, i8, i8, i16, i16, i16, i32, i16, i16, ptr, ptr, ptr, ptr, ptr, i32, i32 }
%struct.nstime_t = type { i64, i32 }
%struct._address = type { i32, i32, ptr, ptr }
%struct.anon = type { i8, [3 x i8] }
%struct._usb_conv_info_t = type { i8, i16, i16, i16, i16, i8, i16, i32, i16, i8, ptr, ptr, i32, ptr }
%struct._controlling_iface = type { i16, i16, i16 }
%struct._cdc_data_conv = type { i32 }
%struct._proto_node = type { ptr, ptr, ptr, ptr, ptr, ptr, ptr }
%struct.field_info = type { ptr, i32, i32, i32, i32, i32, i32, ptr, ptr, ptr, i32, i32 }

@hf_usb_com_data_stream = internal global i32 0, align 4
@hf_usb_com_data_in_payload = internal global i32 0, align 4
@hf_usb_com_data_out_payload = internal global i32 0, align 4
@ett_usb_com = internal global i32 0, align 4
@controlling_ifaces = internal global ptr null, align 8
@.str.182 = private unnamed_addr constant [7 x i8] c"USBCOM\00", align 1
@proto_usb_com = internal global i32 0, align 4
@cdc_data_follow_tap = internal global i32 0, align 4
@mbim_bulk_handle = internal global ptr null, align 8
@eth_withoutfcs_handle = internal global ptr null, align 8
@cdc_data_stream_count = internal global i32 0, align 4

; Function Attrs: inlinehint nounwind null_pointer_is_valid sspstrong uwtable
define internal void @proto_item_set_generated(ptr noundef %0) #6 {
  %2 = alloca ptr, align 8
  store ptr %0, ptr %2, align 8
  %3 = load ptr, ptr %2, align 8
  %4 = icmp ne ptr %3, null
  br i1 %4, label %5, label %24

5:                                                ; preds = %1
  br label %6

6:                                                ; preds = %5
  %7 = load ptr, ptr %2, align 8
  %8 = getelementptr inbounds nuw %struct._proto_node, ptr %7, i32 0, i32 5
  %9 = load ptr, ptr %8, align 8
  %10 = icmp ne ptr %9, null
  br i1 %10, label %11, label %22

11:                                               ; preds = %6
  %12 = load ptr, ptr %2, align 8
  %13 = getelementptr inbounds nuw %struct._proto_node, ptr %12, i32 0, i32 5
  %14 = load ptr, ptr %13, align 8
  %15 = getelementptr inbounds nuw %struct.field_info, ptr %14, i32 0, i32 6
  %16 = load i32, ptr %15, align 4
  %17 = or i32 %16, 2
  %18 = load ptr, ptr %2, align 8
  %19 = getelementptr inbounds nuw %struct._proto_node, ptr %18, i32 0, i32 5
  %20 = load ptr, ptr %19, align 8
  %21 = getelementptr inbounds nuw %struct.field_info, ptr %20, i32 0, i32 6
  store i32 %17, ptr %21, align 4
  br label %22

22:                                               ; preds = %11, %6
  br label %23

23:                                               ; preds = %22
  br label %24

24:                                               ; preds = %23, %1
  ret void
}

; Function Attrs: null_pointer_is_valid sspstrong uwtable
define internal i32 @dissect_usb_com_bulk(ptr noundef %0, ptr noundef %1, ptr noundef %2, ptr noundef %3) #1 {
  %5 = alloca i32, align 4
  %6 = alloca ptr, align 8
  %7 = alloca ptr, align 8
  %8 = alloca ptr, align 8
  %9 = alloca ptr, align 8
  %10 = alloca ptr, align 8
  %11 = alloca ptr, align 8
  %12 = alloca ptr, align 8
  %13 = alloca i32, align 4
  %14 = alloca i32, align 4
  %15 = alloca i32, align 4
  %16 = alloca [4 x %struct._wmem_tree_key_t], align 16
  %17 = alloca ptr, align 8
  %18 = alloca ptr, align 8
  %19 = alloca ptr, align 8
  %20 = alloca ptr, align 8
  %21 = alloca i32, align 4
  store ptr %0, ptr %6, align 8
  store ptr %1, ptr %7, align 8
  store ptr %2, ptr %8, align 8
  store ptr %3, ptr %9, align 8
  call void @llvm.lifetime.start.p0(i64 8, ptr %10) #13
  %22 = load ptr, ptr %9, align 8
  store ptr %22, ptr %10, align 8
  call void @llvm.lifetime.start.p0(i64 8, ptr %11) #13
  call void @llvm.lifetime.start.p0(i64 8, ptr %12) #13
  call void @llvm.lifetime.start.p0(i64 4, ptr %13) #13
  call void @llvm.lifetime.start.p0(i64 4, ptr %14) #13
  call void @llvm.lifetime.start.p0(i64 4, ptr %15) #13
  call void @llvm.lifetime.start.p0(i64 64, ptr %16) #13
  %23 = getelementptr inbounds nuw %struct._wmem_tree_key_t, ptr %16, i32 0, i32 0
  store i32 1, ptr %23, align 16
  %24 = getelementptr i8, ptr %16, i64 4
  call void @llvm.memset.p0.i64(ptr align 4 %24, i8 0, i64 4, i1 false)
  %25 = getelementptr inbounds nuw %struct._wmem_tree_key_t, ptr %16, i32 0, i32 1
  store ptr %13, ptr %25, align 8
  %26 = getelementptr inbounds %struct._wmem_tree_key_t, ptr %16, i64 1
  %27 = getelementptr inbounds nuw %struct._wmem_tree_key_t, ptr %26, i32 0, i32 0
  store i32 1, ptr %27, align 16
  %28 = getelementptr i8, ptr %26, i64 4
  call void @llvm.memset.p0.i64(ptr align 4 %28, i8 0, i64 4, i1 false)
  %29 = getelementptr inbounds nuw %struct._wmem_tree_key_t, ptr %26, i32 0, i32 1
  store ptr %14, ptr %29, align 8
  %30 = getelementptr inbounds %struct._wmem_tree_key_t, ptr %16, i64 2
  %31 = getelementptr inbounds nuw %struct._wmem_tree_key_t, ptr %30, i32 0, i32 0
  store i32 1, ptr %31, align 16
  %32 = getelementptr i8, ptr %30, i64 4
  call void @llvm.memset.p0.i64(ptr align 4 %32, i8 0, i64 4, i1 false)
  %33 = getelementptr inbounds nuw %struct._wmem_tree_key_t, ptr %30, i32 0, i32 1
  store ptr %15, ptr %33, align 8
  %34 = getelementptr inbounds %struct._wmem_tree_key_t, ptr %16, i64 3
  %35 = getelementptr inbounds nuw %struct._wmem_tree_key_t, ptr %34, i32 0, i32 0
  store i32 0, ptr %35, align 16
  %36 = getelementptr i8, ptr %34, i64 4
  call void @llvm.memset.p0.i64(ptr align 4 %36, i8 0, i64 4, i1 false)
  %37 = getelementptr inbounds nuw %struct._wmem_tree_key_t, ptr %34, i32 0, i32 1
  store ptr null, ptr %37, align 8
  call void @llvm.lifetime.start.p0(i64 8, ptr %17) #13
  call void @llvm.lifetime.start.p0(i64 8, ptr %18) #13
  store ptr null, ptr %18, align 8
  call void @llvm.lifetime.start.p0(i64 8, ptr %19) #13
  call void @llvm.lifetime.start.p0(i64 8, ptr %20) #13
  %38 = load ptr, ptr %10, align 8
  %39 = icmp ne ptr %38, null
  br i1 %39, label %40, label %45

40:                                               ; preds = %4
  %41 = load ptr, ptr %10, align 8
  %42 = getelementptr inbounds nuw %struct._urb_info_t, ptr %41, i32 0, i32 11
  %43 = load ptr, ptr %42, align 8
  %44 = icmp ne ptr %43, null
  br i1 %44, label %46, label %45

45:                                               ; preds = %40, %4
  store i32 0, ptr %5, align 4
  store i32 1, ptr %21, align 4
  br label %201

46:                                               ; preds = %40
  %47 = load ptr, ptr %10, align 8
  %48 = getelementptr inbounds nuw %struct._urb_info_t, ptr %47, i32 0, i32 11
  %49 = load ptr, ptr %48, align 8
  store ptr %49, ptr %11, align 8
  %50 = load ptr, ptr %11, align 8
  %51 = getelementptr inbounds nuw %struct._usb_conv_info_t, ptr %50, i32 0, i32 2
  %52 = load i16, ptr %51, align 4
  %53 = zext i16 %52 to i32
  %54 = icmp ne i32 %53, 10
  br i1 %54, label %61, label %55

55:                                               ; preds = %46
  %56 = load ptr, ptr %11, align 8
  %57 = getelementptr inbounds nuw %struct._usb_conv_info_t, ptr %56, i32 0, i32 3
  %58 = load i16, ptr %57, align 2
  %59 = zext i16 %58 to i32
  %60 = icmp ne i32 %59, 0
  br i1 %60, label %61, label %62

61:                                               ; preds = %55, %46
  store i32 0, ptr %5, align 4
  store i32 1, ptr %21, align 4
  br label %201

62:                                               ; preds = %55
  %63 = load ptr, ptr %11, align 8
  %64 = getelementptr inbounds nuw %struct._usb_conv_info_t, ptr %63, i32 0, i32 11
  %65 = load ptr, ptr %64, align 8
  store ptr %65, ptr %12, align 8
  %66 = load ptr, ptr %12, align 8
  %67 = icmp ne ptr %66, null
  br i1 %67, label %80, label %68

68:                                               ; preds = %62
  %69 = call ptr @wmem_file_scope()
  %70 = call noalias ptr @wmem_alloc(ptr noundef %69, i64 noundef 4) #14
  store ptr %70, ptr %12, align 8
  %71 = load i32, ptr @cdc_data_stream_count, align 4
  %72 = add i32 %71, 1
  store i32 %72, ptr @cdc_data_stream_count, align 4
  %73 = load ptr, ptr %12, align 8
  %74 = getelementptr inbounds nuw %struct._cdc_data_conv, ptr %73, i32 0, i32 0
  store i32 %71, ptr %74, align 4
  %75 = load ptr, ptr %12, align 8
  %76 = load ptr, ptr %11, align 8
  %77 = getelementptr inbounds nuw %struct._usb_conv_info_t, ptr %76, i32 0, i32 11
  store ptr %75, ptr %77, align 8
  %78 = load ptr, ptr %11, align 8
  %79 = getelementptr inbounds nuw %struct._usb_conv_info_t, ptr %78, i32 0, i32 12
  store i32 6, ptr %79, align 8
  br label %87

80:                                               ; preds = %62
  %81 = load ptr, ptr %11, align 8
  %82 = getelementptr inbounds nuw %struct._usb_conv_info_t, ptr %81, i32 0, i32 12
  %83 = load i32, ptr %82, align 8
  %84 = icmp ne i32 %83, 6
  br i1 %84, label %85, label %86

85:                                               ; preds = %80
  store i32 0, ptr %5, align 4
  store i32 1, ptr %21, align 4
  br label %201

86:                                               ; preds = %80
  br label %87

87:                                               ; preds = %86, %68
  %88 = load ptr, ptr %7, align 8
  %89 = getelementptr inbounds nuw %struct._packet_info, ptr %88, i32 0, i32 1
  %90 = load ptr, ptr %89, align 8
  call void @col_set_str(ptr noundef %90, i32 noundef 35, ptr noundef @.str.182)
  %91 = load ptr, ptr %8, align 8
  %92 = load i32, ptr @proto_usb_com, align 4
  %93 = load ptr, ptr %6, align 8
  %94 = call ptr @proto_tree_add_item(ptr noundef %91, i32 noundef %92, ptr noundef %93, i32 noundef 0, i32 noundef -1, i32 noundef 0)
  store ptr %94, ptr %20, align 8
  %95 = load ptr, ptr %20, align 8
  %96 = load i32, ptr @ett_usb_com, align 4
  %97 = call ptr @proto_item_add_subtree(ptr noundef %95, i32 noundef %96)
  store ptr %97, ptr %19, align 8
  %98 = load ptr, ptr %19, align 8
  %99 = load i32, ptr @hf_usb_com_data_stream, align 4
  %100 = load ptr, ptr %6, align 8
  %101 = load ptr, ptr %12, align 8
  %102 = getelementptr inbounds nuw %struct._cdc_data_conv, ptr %101, i32 0, i32 0
  %103 = load i32, ptr %102, align 4
  %104 = call ptr @proto_tree_add_uint(ptr noundef %98, i32 noundef %99, ptr noundef %100, i32 noundef 0, i32 noundef 0, i32 noundef %103)
  store ptr %104, ptr %20, align 8
  %105 = load ptr, ptr %20, align 8
  call void @proto_item_set_generated(ptr noundef %105)
  %106 = load ptr, ptr %7, align 8
  %107 = getelementptr inbounds nuw %struct._packet_info, ptr %106, i32 0, i32 37
  %108 = load i32, ptr %107, align 4
  %109 = icmp eq i32 %108, 1
  br i1 %109, label %110, label %115

110:                                              ; preds = %87
  %111 = load ptr, ptr %19, align 8
  %112 = load i32, ptr @hf_usb_com_data_in_payload, align 4
  %113 = load ptr, ptr %6, align 8
  %114 = call ptr @proto_tree_add_item(ptr noundef %111, i32 noundef %112, ptr noundef %113, i32 noundef 0, i32 noundef -1, i32 noundef 0)
  br label %120

115:                                              ; preds = %87
  %116 = load ptr, ptr %19, align 8
  %117 = load i32, ptr @hf_usb_com_data_out_payload, align 4
  %118 = load ptr, ptr %6, align 8
  %119 = call ptr @proto_tree_add_item(ptr noundef %116, i32 noundef %117, ptr noundef %118, i32 noundef 0, i32 noundef -1, i32 noundef 0)
  br label %120

120:                                              ; preds = %115, %110
  %121 = load i32, ptr @cdc_data_follow_tap, align 4
  %122 = call zeroext i1 @have_tap_listener(i32 noundef %121)
  br i1 %122, label %123, label %127

123:                                              ; preds = %120
  %124 = load i32, ptr @cdc_data_follow_tap, align 4
  %125 = load ptr, ptr %7, align 8
  %126 = load ptr, ptr %6, align 8
  call void @tap_queue_packet(i32 noundef %124, ptr noundef %125, ptr noundef %126)
  br label %127

127:                                              ; preds = %123, %120
  %128 = load ptr, ptr %10, align 8
  %129 = getelementptr inbounds nuw %struct._urb_info_t, ptr %128, i32 0, i32 0
  %130 = load i16, ptr %129, align 8
  %131 = zext i16 %130 to i32
  store i32 %131, ptr %13, align 4
  %132 = load ptr, ptr %10, align 8
  %133 = getelementptr inbounds nuw %struct._urb_info_t, ptr %132, i32 0, i32 1
  %134 = load i16, ptr %133, align 2
  %135 = zext i16 %134 to i32
  store i32 %135, ptr %14, align 4
  %136 = load ptr, ptr %11, align 8
  %137 = getelementptr inbounds nuw %struct._usb_conv_info_t, ptr %136, i32 0, i32 5
  %138 = load i8, ptr %137, align 2
  %139 = zext i8 %138 to i32
  store i32 %139, ptr %15, align 4
  %140 = load ptr, ptr @controlling_ifaces, align 8
  %141 = getelementptr inbounds [4 x %struct._wmem_tree_key_t], ptr %16, i64 0, i64 0
  %142 = call ptr @wmem_tree_lookup32_array(ptr noundef %140, ptr noundef %141)
  store ptr %142, ptr %17, align 8
  %143 = load ptr, ptr %17, align 8
  %144 = icmp ne ptr %143, null
  br i1 %144, label %145, label %151

145:                                              ; preds = %127
  %146 = load ptr, ptr %17, align 8
  %147 = load ptr, ptr %7, align 8
  %148 = getelementptr inbounds nuw %struct._packet_info, ptr %147, i32 0, i32 3
  %149 = load i32, ptr %148, align 4
  %150 = call ptr @wmem_tree_lookup32_le(ptr noundef %146, i32 noundef %149)
  store ptr %150, ptr %18, align 8
  br label %151

151:                                              ; preds = %145, %127
  %152 = load ptr, ptr %18, align 8
  %153 = icmp ne ptr %152, null
  br i1 %153, label %154, label %186

154:                                              ; preds = %151
  %155 = load ptr, ptr %18, align 8
  %156 = getelementptr inbounds nuw %struct._controlling_iface, ptr %155, i32 0, i32 0
  %157 = load i16, ptr %156, align 2
  %158 = zext i16 %157 to i32
  %159 = icmp eq i32 %158, 2
  br i1 %159, label %160, label %185

160:                                              ; preds = %154
  %161 = load ptr, ptr %18, align 8
  %162 = getelementptr inbounds nuw %struct._controlling_iface, ptr %161, i32 0, i32 1
  %163 = load i16, ptr %162, align 2
  %164 = zext i16 %163 to i32
  %165 = icmp eq i32 %164, 6
  br i1 %165, label %166, label %184

166:                                              ; preds = %160
  %167 = load ptr, ptr %18, align 8
  %168 = getelementptr inbounds nuw %struct._controlling_iface, ptr %167, i32 0, i32 2
  %169 = load i16, ptr %168, align 2
  %170 = zext i16 %169 to i32
  %171 = icmp eq i32 %170, 0
  br i1 %171, label %172, label %184

172:                                              ; preds = %166
  %173 = load ptr, ptr %11, align 8
  %174 = getelementptr inbounds nuw %struct._usb_conv_info_t, ptr %173, i32 0, i32 4
  %175 = load i16, ptr %174, align 8
  %176 = zext i16 %175 to i32
  %177 = icmp eq i32 %176, 0
  br i1 %177, label %178, label %184

178:                                              ; preds = %172
  %179 = load ptr, ptr @eth_withoutfcs_handle, align 8
  %180 = load ptr, ptr %6, align 8
  %181 = load ptr, ptr %7, align 8
  %182 = load ptr, ptr %8, align 8
  %183 = call i32 @call_dissector_only(ptr noundef %179, ptr noundef %180, ptr noundef %181, ptr noundef %182, ptr noundef null)
  store i32 %183, ptr %5, align 4
  store i32 1, ptr %21, align 4
  br label %201

184:                                              ; preds = %172, %166, %160
  br label %185

185:                                              ; preds = %184, %154
  br label %186

186:                                              ; preds = %185, %151
  %187 = load ptr, ptr %11, align 8
  %188 = getelementptr inbounds nuw %struct._usb_conv_info_t, ptr %187, i32 0, i32 4
  %189 = load i16, ptr %188, align 8
  %190 = zext i16 %189 to i32
  switch i32 %190, label %197 [
    i32 1, label %191
    i32 2, label %191
  ]

191:                                              ; preds = %186, %186
  %192 = load ptr, ptr @mbim_bulk_handle, align 8
  %193 = load ptr, ptr %6, align 8
  %194 = load ptr, ptr %7, align 8
  %195 = load ptr, ptr %8, align 8
  %196 = call i32 @call_dissector_only(ptr noundef %192, ptr noundef %193, ptr noundef %194, ptr noundef %195, ptr noundef null)
  store i32 %196, ptr %5, align 4
  store i32 1, ptr %21, align 4
  br label %201

197:                                              ; preds = %186
  br label %198

198:                                              ; preds = %197
  %199 = load ptr, ptr %6, align 8
  %200 = call i32 @tvb_captured_length(ptr noundef %199)
  store i32 %200, ptr %5, align 4
  store i32 1, ptr %21, align 4
  br label %201

201:                                              ; preds = %198, %191, %178, %85, %61, %45
  call void @llvm.lifetime.end.p0(i64 8, ptr %20) #13
  call void @llvm.lifetime.end.p0(i64 8, ptr %19) #13
  call void @llvm.lifetime.end.p0(i64 8, ptr %18) #13
  call void @llvm.lifetime.end.p0(i64 8, ptr %17) #13
  call void @llvm.lifetime.end.p0(i64 64, ptr %16) #13
  call void @llvm.lifetime.end.p0(i64 4, ptr %15) #13
  call void @llvm.lifetime.end.p0(i64 4, ptr %14) #13
  call void @llvm.lifetime.end.p0(i64 4, ptr %13) #13
  call void @llvm.lifetime.end.p0(i64 8, ptr %12) #13
  call void @llvm.lifetime.end.p0(i64 8, ptr %11) #13
  call void @llvm.lifetime.end.p0(i64 8, ptr %10) #13
  %202 = load i32, ptr %5, align 4
  ret i32 %202
}