; Function Attrs: null_pointer_is_valid sspstrong uwtable
define internal i32 @dissect_usb_com_bulk(ptr noundef %0, ptr noundef %1, ptr noundef %2, ptr noundef readonly captures(address_is_null) %3) #1 {
  %5 = alloca i32, align 4
  %6 = alloca i32, align 4
  %7 = alloca i32, align 4
  %8 = alloca [4 x %struct._wmem_tree_key_t], align 16
  call void @llvm.lifetime.start.p0(i64 4, ptr nonnull %5) #11
  call void @llvm.lifetime.start.p0(i64 4, ptr nonnull %6) #11
  call void @llvm.lifetime.start.p0(i64 4, ptr nonnull %7) #11
  call void @llvm.lifetime.start.p0(i64 64, ptr nonnull %8) #11
  store i32 1, ptr %8, align 16
  %9 = getelementptr inbounds nuw i8, ptr %8, i64 4
  store i32 0, ptr %9, align 4
  %10 = getelementptr inbounds nuw i8, ptr %8, i64 8
  store ptr %5, ptr %10, align 8
  %11 = getelementptr inbounds nuw i8, ptr %8, i64 16
  store i32 1, ptr %11, align 16
  %12 = getelementptr inbounds nuw i8, ptr %8, i64 20
  store i32 0, ptr %12, align 4
  %13 = getelementptr inbounds nuw i8, ptr %8, i64 24
  store ptr %6, ptr %13, align 8
  %14 = getelementptr inbounds nuw i8, ptr %8, i64 32
  store i32 1, ptr %14, align 16
  %15 = getelementptr inbounds nuw i8, ptr %8, i64 36
  store i32 0, ptr %15, align 4
  %16 = getelementptr inbounds nuw i8, ptr %8, i64 40
  store ptr %7, ptr %16, align 8
  %17 = getelementptr inbounds nuw i8, ptr %8, i64 48
  %.not = icmp eq ptr %3, null
  call void @llvm.memset.p0.i64(ptr noundef nonnull align 16 dereferenceable(16) %17, i8 0, i64 16, i1 false)
  br i1 %.not, label %105, label %18

18:                                               ; preds = %4
  %19 = getelementptr inbounds nuw i8, ptr %3, i64 40
  %20 = load ptr, ptr %19, align 8
  %.not53 = icmp eq ptr %20, null
  br i1 %.not53, label %105, label %21

21:                                               ; preds = %18
  %22 = getelementptr inbounds nuw i8, ptr %20, i64 4
  %23 = load i16, ptr %22, align 4
  %.not54 = icmp eq i16 %23, 10
  br i1 %.not54, label %24, label %105

24:                                               ; preds = %21
  %25 = getelementptr inbounds nuw i8, ptr %20, i64 6
  %26 = load i16, ptr %25, align 2
  %.not55 = icmp eq i16 %26, 0
  br i1 %.not55, label %27, label %105

27:                                               ; preds = %24
  %28 = getelementptr inbounds nuw i8, ptr %20, i64 32
  %29 = load ptr, ptr %28, align 8
  %.not56 = icmp eq ptr %29, null
  br i1 %.not56, label %30, label %36

30:                                               ; preds = %27
  %31 = call ptr @wmem_file_scope()
  %32 = call noalias dereferenceable_or_null(4) ptr @wmem_alloc(ptr noundef %31, i64 noundef 4) #12
  %33 = load i32, ptr @cdc_data_stream_count, align 4
  %34 = add i32 %33, 1
  store i32 %34, ptr @cdc_data_stream_count, align 4
  store i32 %33, ptr %32, align 4
  store ptr %32, ptr %28, align 8
  %35 = getelementptr inbounds nuw i8, ptr %20, i64 40
  store i32 6, ptr %35, align 8
  br label %39

36:                                               ; preds = %27
  %37 = getelementptr inbounds nuw i8, ptr %20, i64 40
  %38 = load i32, ptr %37, align 8
  %.not57 = icmp eq i32 %38, 6
  br i1 %.not57, label %39, label %105

39:                                               ; preds = %36, %30
  %.047 = phi ptr [ %29, %36 ], [ %32, %30 ]
  %40 = getelementptr inbounds nuw i8, ptr %1, i64 8
  %41 = load ptr, ptr %40, align 8
  call void @col_set_str(ptr noundef %41, i32 noundef 35, ptr noundef nonnull @.str.182)
  %42 = load i32, ptr @proto_usb_com, align 4
  %43 = call ptr @proto_tree_add_item(ptr noundef %2, i32 noundef %42, ptr noundef %0, i32 noundef 0, i32 noundef -1, i32 noundef 0)
  %44 = load i32, ptr @ett_usb_com, align 4
  %45 = call ptr @proto_item_add_subtree(ptr noundef %43, i32 noundef %44)
  %46 = load i32, ptr @hf_usb_com_data_stream, align 4
  %47 = load i32, ptr %.047, align 4
  %48 = call ptr @proto_tree_add_uint(ptr noundef %45, i32 noundef %46, ptr noundef %0, i32 noundef 0, i32 noundef 0, i32 noundef %47)
  %.not.i = icmp eq ptr %48, null
  br i1 %.not.i, label %proto_item_set_generated.exit, label %49

49:                                               ; preds = %39
  %50 = getelementptr inbounds nuw i8, ptr %48, i64 40
  %51 = load ptr, ptr %50, align 8
  %.not5.i = icmp eq ptr %51, null
  br i1 %.not5.i, label %proto_item_set_generated.exit, label %52

52:                                               ; preds = %49
  %53 = getelementptr inbounds nuw i8, ptr %51, i64 28
  %54 = load i32, ptr %53, align 4
  %55 = or i32 %54, 2
  store i32 %55, ptr %53, align 4
  br label %proto_item_set_generated.exit

proto_item_set_generated.exit:                    ; preds = %39, %49, %52
  %56 = getelementptr inbounds nuw i8, ptr %1, i64 348
  %57 = load i32, ptr %56, align 4
  %58 = icmp eq i32 %57, 1
  %hf_usb_com_data_in_payload.val = load i32, ptr @hf_usb_com_data_in_payload, align 4
  %hf_usb_com_data_out_payload.val = load i32, ptr @hf_usb_com_data_out_payload, align 4
  %59 = select i1 %58, i32 %hf_usb_com_data_in_payload.val, i32 %hf_usb_com_data_out_payload.val
  %60 = call ptr @proto_tree_add_item(ptr noundef %45, i32 noundef %59, ptr noundef %0, i32 noundef 0, i32 noundef -1, i32 noundef 0)
  %61 = load i32, ptr @cdc_data_follow_tap, align 4
  %62 = call zeroext i1 @have_tap_listener(i32 noundef %61)
  br i1 %62, label %63, label %65

63:                                               ; preds = %proto_item_set_generated.exit
  %64 = load i32, ptr @cdc_data_follow_tap, align 4
  call void @tap_queue_packet(i32 noundef %64, ptr noundef %1, ptr noundef %0)
  br label %65

65:                                               ; preds = %63, %proto_item_set_generated.exit
  %66 = load i16, ptr %3, align 8
  %67 = zext i16 %66 to i32
  store i32 %67, ptr %5, align 4
  %68 = getelementptr inbounds nuw i8, ptr %3, i64 2
  %69 = load i16, ptr %68, align 2
  %70 = zext i16 %69 to i32
  store i32 %70, ptr %6, align 4
  %71 = getelementptr inbounds nuw i8, ptr %20, i64 10
  %72 = load i8, ptr %71, align 2
  %73 = zext i8 %72 to i32
  store i32 %73, ptr %7, align 4
  %74 = load ptr, ptr @controlling_ifaces, align 8
  %75 = call ptr @wmem_tree_lookup32_array(ptr noundef %74, ptr noundef nonnull %8)
  %.not58 = icmp eq ptr %75, null
  br i1 %.not58, label %.thread, label %76

76:                                               ; preds = %65
  %77 = getelementptr inbounds nuw i8, ptr %1, i64 20
  %78 = load i32, ptr %77, align 4
  %79 = call ptr @wmem_tree_lookup32_le(ptr noundef nonnull %75, i32 noundef %78)
  %.not59 = icmp eq ptr %79, null
  br i1 %.not59, label %.thread, label %80

80:                                               ; preds = %76
  %81 = load i16, ptr %79, align 2
  %82 = icmp eq i16 %81, 2
  br i1 %82, label %83, label %.thread

83:                                               ; preds = %80
  %84 = getelementptr inbounds nuw i8, ptr %79, i64 2
  %85 = load i16, ptr %84, align 2
  %86 = icmp eq i16 %85, 6
  br i1 %86, label %87, label %.thread

87:                                               ; preds = %83
  %88 = getelementptr inbounds nuw i8, ptr %79, i64 4
  %89 = load i16, ptr %88, align 2
  %90 = icmp eq i16 %89, 0
  br i1 %90, label %91, label %.thread

91:                                               ; preds = %87
  %92 = getelementptr inbounds nuw i8, ptr %20, i64 8
  %93 = load i16, ptr %92, align 8
  %94 = icmp eq i16 %93, 0
  br i1 %94, label %95, label %.thread

95:                                               ; preds = %91
  %96 = load ptr, ptr @eth_withoutfcs_handle, align 8
  %97 = call i32 @call_dissector_only(ptr noundef %96, ptr noundef %0, ptr noundef %1, ptr noundef %2, ptr noundef null)
  br label %105

.thread:                                          ; preds = %65, %80, %91, %87, %83, %76
  %98 = getelementptr inbounds nuw i8, ptr %20, i64 8
  %99 = load i16, ptr %98, align 8
  %.off = add i16 %99, -1
  %switch = icmp ult i16 %.off, 2
  br i1 %switch, label %100, label %103

100:                                              ; preds = %.thread
  %101 = load ptr, ptr @mbim_bulk_handle, align 8
  %102 = call i32 @call_dissector_only(ptr noundef %101, ptr noundef %0, ptr noundef %1, ptr noundef %2, ptr noundef null)
  br label %105

103:                                              ; preds = %.thread
  %104 = call i32 @tvb_captured_length(ptr noundef %0)
  br label %105

105:                                              ; preds = %36, %21, %24, %4, %18, %103, %100, %95
  %.0 = phi i32 [ %97, %95 ], [ %104, %103 ], [ %102, %100 ], [ 0, %18 ], [ 0, %4 ], [ 0, %24 ], [ 0, %21 ], [ 0, %36 ]
  call void @llvm.lifetime.end.p0(i64 64, ptr nonnull %8) #11
  call void @llvm.lifetime.end.p0(i64 4, ptr nonnull %7) #11
  call void @llvm.lifetime.end.p0(i64 4, ptr nonnull %6) #11
  call void @llvm.lifetime.end.p0(i64 4, ptr nonnull %5) #11
  ret i32 %.0
}